(dp1
S'training_batch_size'
p2
I1
sS'input_shape'
p3
(I4
I240
I240
I155
tp4
sS'output_units'
p5
I6
sS'B4'
p6
(dp7
S'c1_stride'
p8
(I1
I1
I1
tp9
sS'c1_padding'
p10
S'valid'
p11
sS'c1_num_filters'
p12
I32
sS'c2_num_filters'
p13
I32
sS'p1_stride'
p14
NsS'p1_pool_size'
p15
(I2
I2
I2
tp16
sS'c1_activation'
p17
S'relu'
p18
sS'c2_activation'
p19
g18
sS'c2_stride'
p20
(I1
I1
I1
tp21
sS'c2_padding'
p22
g11
sS'c1_filter_size'
p23
(I5
I5
I5
tp24
sS'c2_filter_size'
p25
(I5
I5
I5
tp26
ssS'B5'
p27
(dp28
S'out_num_units'
p29
I6
sS'd1_activation'
p30
g18
sS'd1_num_units'
p31
I1000
sS'out_activation'
p32
NsS'd2_activation'
p33
g18
sS'd2_num_units'
p34
I1000
ssS'B1'
p35
(dp36
g8
(I1
I1
I1
tp37
sg10
g11
sg12
I32
sg13
I32
sg14
Nsg15
(I2
I2
I2
tp38
sg17
g18
sg19
g18
sg20
(I1
I1
I1
tp39
sg22
g11
sg23
(I5
I5
I5
tp40
sg25
(I5
I5
I5
tp41
ssS'B2'
p42
(dp43
g8
(I1
I1
I1
tp44
sg10
g11
sg12
I64
sg13
I64
sg14
Nsg15
(I2
I2
I2
tp45
sg17
g18
sg19
g18
sg20
(I1
I1
I1
tp46
sg22
g11
sg23
(I5
I5
I5
tp47
sg25
(I5
I5
I5
tp48
ssS'B3'
p49
(dp50
g8
(I1
I1
I1
tp51
sg10
g11
sg12
I128
sg13
I128
sg14
Nsg15
(I2
I2
I2
tp52
sg17
g18
sg19
g18
sg20
(I1
I1
I1
tp53
sg22
g11
sg23
(I5
I5
I5
tp54
sg25
(I5
I5
I5
tp55
ss.